target datalayout = "e-m:e-p270:32:32-p271:32:32-p272:64:64-i64:64-i128:128-f80:128-n8:16:32:64-S128"
target triple = "x86_64-pc-linux-gnu"

%struct.Poly1305 = type { [3 x i64], [3 x i64], [2 x i64], i64, [16 x i8], i8 }

; Function Attrs: nounwind uwtable
define internal i64 @U8TO64(ptr noundef %0) #0 {
  %2 = alloca ptr, align 8
  store ptr %0, ptr %2, align 8, !tbaa !8
  %3 = load ptr, ptr %2, align 8, !tbaa !8
  %4 = getelementptr inbounds i8, ptr %3, i64 0
  %5 = load i8, ptr %4, align 1, !tbaa !17
  %6 = zext i8 %5 to i32
  %7 = and i32 %6, 255
  %8 = sext i32 %7 to i64
  %9 = load ptr, ptr %2, align 8, !tbaa !8
  %10 = getelementptr inbounds i8, ptr %9, i64 1
  %11 = load i8, ptr %10, align 1, !tbaa !17
  %12 = zext i8 %11 to i32
  %13 = and i32 %12, 255
  %14 = sext i32 %13 to i64
  %15 = shl i64 %14, 8
  %16 = or i64 %8, %15
  %17 = load ptr, ptr %2, align 8, !tbaa !8
  %18 = getelementptr inbounds i8, ptr %17, i64 2
  %19 = load i8, ptr %18, align 1, !tbaa !17
  %20 = zext i8 %19 to i32
  %21 = and i32 %20, 255
  %22 = sext i32 %21 to i64
  %23 = shl i64 %22, 16
  %24 = or i64 %16, %23
  %25 = load ptr, ptr %2, align 8, !tbaa !8
  %26 = getelementptr inbounds i8, ptr %25, i64 3
  %27 = load i8, ptr %26, align 1, !tbaa !17
  %28 = zext i8 %27 to i32
  %29 = and i32 %28, 255
  %30 = sext i32 %29 to i64
  %31 = shl i64 %30, 24
  %32 = or i64 %24, %31
  %33 = load ptr, ptr %2, align 8, !tbaa !8
  %34 = getelementptr inbounds i8, ptr %33, i64 4
  %35 = load i8, ptr %34, align 1, !tbaa !17
  %36 = zext i8 %35 to i32
  %37 = and i32 %36, 255
  %38 = sext i32 %37 to i64
  %39 = shl i64 %38, 32
  %40 = or i64 %32, %39
  %41 = load ptr, ptr %2, align 8, !tbaa !8
  %42 = getelementptr inbounds i8, ptr %41, i64 5
  %43 = load i8, ptr %42, align 1, !tbaa !17
  %44 = zext i8 %43 to i32
  %45 = and i32 %44, 255
  %46 = sext i32 %45 to i64
  %47 = shl i64 %46, 40
  %48 = or i64 %40, %47
  %49 = load ptr, ptr %2, align 8, !tbaa !8
  %50 = getelementptr inbounds i8, ptr %49, i64 6
  %51 = load i8, ptr %50, align 1, !tbaa !17
  %52 = zext i8 %51 to i32
  %53 = and i32 %52, 255
  %54 = sext i32 %53 to i64
  %55 = shl i64 %54, 48
  %56 = or i64 %48, %55
  %57 = load ptr, ptr %2, align 8, !tbaa !8
  %58 = getelementptr inbounds i8, ptr %57, i64 7
  %59 = load i8, ptr %58, align 1, !tbaa !17
  %60 = zext i8 %59 to i32
  %61 = and i32 %60, 255
  %62 = sext i32 %61 to i64
  %63 = shl i64 %62, 56
  %64 = or i64 %56, %63
  ret i64 %64
}

; Function Attrs: nounwind uwtable
define i32 @wc_Poly1305SetKey(ptr noundef %0, ptr noundef %1, i32 noundef %2) #0 {
  %4 = alloca i32, align 4
  %5 = alloca ptr, align 8
  %6 = alloca ptr, align 8
  %7 = alloca i32, align 4
  %8 = alloca i64, align 8
  %9 = alloca i64, align 8
  %10 = alloca i32, align 4
  store ptr %0, ptr %5, align 8, !tbaa !3
  store ptr %1, ptr %6, align 8, !tbaa !8
  store i32 %2, ptr %7, align 4, !tbaa !10
  call void @llvm.lifetime.start.p0(i64 8, ptr %8) #4
  call void @llvm.lifetime.start.p0(i64 8, ptr %9) #4
  %11 = load ptr, ptr %6, align 8, !tbaa !8
  %12 = icmp eq ptr %11, null
  br i1 %12, label %13, label %14

13:                                               ; preds = %3
  store i32 -173, ptr %4, align 4
  store i32 1, ptr %10, align 4
  br label %73

14:                                               ; preds = %3
  %15 = load i32, ptr %7, align 4, !tbaa !10
  %16 = icmp ne i32 %15, 32
  br i1 %16, label %20, label %17

17:                                               ; preds = %14
  %18 = load ptr, ptr %5, align 8, !tbaa !3
  %19 = icmp eq ptr %18, null
  br i1 %19, label %20, label %21

20:                                               ; preds = %17, %14
  store i32 -173, ptr %4, align 4
  store i32 1, ptr %10, align 4
  br label %73

21:                                               ; preds = %17
  %22 = load ptr, ptr %6, align 8, !tbaa !8
  %23 = getelementptr inbounds i8, ptr %22, i64 0
  %24 = call i64 @U8TO64(ptr noundef %23)
  store i64 %24, ptr %8, align 8, !tbaa !12
  %25 = load ptr, ptr %6, align 8, !tbaa !8
  %26 = getelementptr inbounds i8, ptr %25, i64 8
  %27 = call i64 @U8TO64(ptr noundef %26)
  store i64 %27, ptr %9, align 8, !tbaa !12
  %28 = load i64, ptr %8, align 8, !tbaa !12
  %29 = and i64 %28, 17575274610687
  %30 = load ptr, ptr %5, align 8, !tbaa !3
  %31 = getelementptr inbounds nuw %struct.Poly1305, ptr %30, i32 0, i32 0
  %32 = getelementptr inbounds [3 x i64], ptr %31, i64 0, i64 0
  store i64 %29, ptr %32, align 8, !tbaa !12
  %33 = load i64, ptr %8, align 8, !tbaa !12
  %34 = lshr i64 %33, 44
  %35 = load i64, ptr %9, align 8, !tbaa !12
  %36 = shl i64 %35, 20
  %37 = or i64 %34, %36
  %38 = and i64 %37, 17592181915647
  %39 = load ptr, ptr %5, align 8, !tbaa !3
  %40 = getelementptr inbounds nuw %struct.Poly1305, ptr %39, i32 0, i32 0
  %41 = getelementptr inbounds [3 x i64], ptr %40, i64 0, i64 1
  store i64 %38, ptr %41, align 8, !tbaa !12
  %42 = load i64, ptr %9, align 8, !tbaa !12
  %43 = lshr i64 %42, 24
  %44 = and i64 %43, 68719475727
  %45 = load ptr, ptr %5, align 8, !tbaa !3
  %46 = getelementptr inbounds nuw %struct.Poly1305, ptr %45, i32 0, i32 0
  %47 = getelementptr inbounds [3 x i64], ptr %46, i64 0, i64 2
  store i64 %44, ptr %47, align 8, !tbaa !12
  %48 = load ptr, ptr %5, align 8, !tbaa !3
  %49 = getelementptr inbounds nuw %struct.Poly1305, ptr %48, i32 0, i32 1
  %50 = getelementptr inbounds [3 x i64], ptr %49, i64 0, i64 0
  store i64 0, ptr %50, align 8, !tbaa !12
  %51 = load ptr, ptr %5, align 8, !tbaa !3
  %52 = getelementptr inbounds nuw %struct.Poly1305, ptr %51, i32 0, i32 1
  %53 = getelementptr inbounds [3 x i64], ptr %52, i64 0, i64 1
  store i64 0, ptr %53, align 8, !tbaa !12
  %54 = load ptr, ptr %5, align 8, !tbaa !3
  %55 = getelementptr inbounds nuw %struct.Poly1305, ptr %54, i32 0, i32 1
  %56 = getelementptr inbounds [3 x i64], ptr %55, i64 0, i64 2
  store i64 0, ptr %56, align 8, !tbaa !12
  %57 = load ptr, ptr %6, align 8, !tbaa !8
  %58 = getelementptr inbounds i8, ptr %57, i64 16
  %59 = call i64 @U8TO64(ptr noundef %58)
  %60 = load ptr, ptr %5, align 8, !tbaa !3
  %61 = getelementptr inbounds nuw %struct.Poly1305, ptr %60, i32 0, i32 2
  %62 = getelementptr inbounds [2 x i64], ptr %61, i64 0, i64 0
  store i64 %59, ptr %62, align 8, !tbaa !12
  %63 = load ptr, ptr %6, align 8, !tbaa !8
  %64 = getelementptr inbounds i8, ptr %63, i64 24
  %65 = call i64 @U8TO64(ptr noundef %64)
  %66 = load ptr, ptr %5, align 8, !tbaa !3
  %67 = getelementptr inbounds nuw %struct.Poly1305, ptr %66, i32 0, i32 2
  %68 = getelementptr inbounds [2 x i64], ptr %67, i64 0, i64 1
  store i64 %65, ptr %68, align 8, !tbaa !12
  %69 = load ptr, ptr %5, align 8, !tbaa !3
  %70 = getelementptr inbounds nuw %struct.Poly1305, ptr %69, i32 0, i32 3
  store i64 0, ptr %70, align 8, !tbaa !14
  %71 = load ptr, ptr %5, align 8, !tbaa !3
  %72 = getelementptr inbounds nuw %struct.Poly1305, ptr %71, i32 0, i32 5
  store i8 0, ptr %72, align 8, !tbaa !16
  store i32 0, ptr %4, align 4
  store i32 1, ptr %10, align 4
  br label %73

73:                                               ; preds = %21, %20, %13
  call void @llvm.lifetime.end.p0(i64 8, ptr %9) #4
  call void @llvm.lifetime.end.p0(i64 8, ptr %8) #4
  %74 = load i32, ptr %4, align 4
  ret i32 %74
}