; Function Attrs: mustprogress nofree norecurse nosync nounwind willreturn memory(argmem: readwrite) uwtable
define range(i32 -173, 1) i32 @wc_Poly1305SetKey(ptr noundef writeonly captures(address_is_null) %0, ptr noundef readonly captures(address_is_null) %1, i32 noundef %2) local_unnamed_addr #0 {
  %4 = icmp eq ptr %1, null
  br i1 %4, label %28, label %5

5:                                                ; preds = %3
  %6 = icmp ne i32 %2, 32
  %7 = icmp eq ptr %0, null
  %or.cond = or i1 %7, %6
  br i1 %or.cond, label %28, label %8

8:                                                ; preds = %5
  %9 = load i64, ptr %1, align 1
  %10 = getelementptr inbounds nuw i8, ptr %1, i64 8
  %11 = load i64, ptr %10, align 1
  %12 = and i64 %9, 17575274610687
  store i64 %12, ptr %0, align 8, !tbaa !3
  %13 = tail call i64 @llvm.fshl.i64(i64 %11, i64 %9, i64 20)
  %14 = and i64 %13, 17592181915647
  %15 = getelementptr inbounds nuw i8, ptr %0, i64 8
  store i64 %14, ptr %15, align 8, !tbaa !3
  %16 = lshr i64 %11, 24
  %17 = and i64 %16, 68719475727
  %18 = getelementptr inbounds nuw i8, ptr %0, i64 16
  store i64 %17, ptr %18, align 8, !tbaa !3
  %19 = getelementptr inbounds nuw i8, ptr %0, i64 24
  %20 = getelementptr inbounds nuw i8, ptr %1, i64 16
  tail call void @llvm.memset.p0.i64(ptr noundef nonnull align 8 dereferenceable(24) %19, i8 0, i64 24, i1 false)
  %21 = load i64, ptr %20, align 1
  %22 = getelementptr inbounds nuw i8, ptr %0, i64 48
  store i64 %21, ptr %22, align 8, !tbaa !3
  %23 = getelementptr inbounds nuw i8, ptr %1, i64 24
  %24 = load i64, ptr %23, align 1
  %25 = getelementptr inbounds nuw i8, ptr %0, i64 56
  store i64 %24, ptr %25, align 8, !tbaa !3
  %26 = getelementptr inbounds nuw i8, ptr %0, i64 64
  store i64 0, ptr %26, align 8, !tbaa !7
  %27 = getelementptr inbounds nuw i8, ptr %0, i64 88
  store i8 0, ptr %27, align 8, !tbaa !9
  br label %28

28:                                               ; preds = %5, %3, %8
  %.0 = phi i32 [ 0, %8 ], [ -173, %3 ], [ -173, %5 ]
  ret i32 %.0
}